; Function Attrs: nounwind uwtable
define dso_local void @onig_warning(ptr noundef %0) local_unnamed_addr #2 {
  %2 = load ptr, ptr @onig_warn, align 8, !tbaa !4
  %3 = icmp eq ptr %2, @onig_null_warn
  br i1 %3, label %5, label %4

4:                                                ; preds = %1
  tail call void %2(ptr noundef %0) #24
  br label %5

5:                                                ; preds = %1, %4
  ret void
}